target datalayout = "e-m:e-p270:32:32-p271:32:32-p272:64:64-i64:64-i128:128-f80:128-n8:16:32:64-S128"
target triple = "x86_64-pc-linux-gnu"

%struct.FullTransactionId = type { i64 }
%struct.FunctionCallInfoBaseData = type { ptr, ptr, ptr, i32, i8, i16, [0 x %struct.NullableDatum] }
%struct.NullableDatum = type { i64, i8 }
%struct.pg_snapshot = type { i32, i32, %struct.FullTransactionId, %struct.FullTransactionId, [0 x %struct.FullTransactionId] }

; Function Attrs: inlinehint nounwind uwtable
define available_externally ptr @bsearch(ptr noundef nonnull %0, ptr noundef nonnull %1, i64 noundef %2, i64 noundef %3, ptr noundef nonnull %4) #2 {
  %6 = alloca ptr, align 8
  %7 = alloca ptr, align 8
  %8 = alloca ptr, align 8
  %9 = alloca i64, align 8
  %10 = alloca i64, align 8
  %11 = alloca ptr, align 8
  %12 = alloca i64, align 8
  %13 = alloca i64, align 8
  %14 = alloca i64, align 8
  %15 = alloca ptr, align 8
  %16 = alloca i32, align 4
  %17 = alloca i32, align 4
  store ptr %0, ptr %7, align 8
  store ptr %1, ptr %8, align 8
  store i64 %2, ptr %9, align 8
  store i64 %3, ptr %10, align 8
  store ptr %4, ptr %11, align 8
  call void @llvm.lifetime.start.p0(i64 8, ptr %12) #9
  call void @llvm.lifetime.start.p0(i64 8, ptr %13) #9
  call void @llvm.lifetime.start.p0(i64 8, ptr %14) #9
  call void @llvm.lifetime.start.p0(i64 8, ptr %15) #9
  call void @llvm.lifetime.start.p0(i64 4, ptr %16) #9
  store i64 0, ptr %12, align 8
  %18 = load i64, ptr %9, align 8
  store i64 %18, ptr %13, align 8
  br label %19

19:                                               ; preds = %50, %5
  %20 = load i64, ptr %12, align 8
  %21 = load i64, ptr %13, align 8
  %22 = icmp ult i64 %20, %21
  br i1 %22, label %23, label %51

23:                                               ; preds = %19
  %24 = load i64, ptr %12, align 8
  %25 = load i64, ptr %13, align 8
  %26 = add i64 %24, %25
  %27 = udiv i64 %26, 2
  store i64 %27, ptr %14, align 8
  %28 = load ptr, ptr %8, align 8
  %29 = load i64, ptr %14, align 8
  %30 = load i64, ptr %10, align 8
  %31 = mul i64 %29, %30
  %32 = getelementptr inbounds nuw i8, ptr %28, i64 %31
  store ptr %32, ptr %15, align 8
  %33 = load ptr, ptr %11, align 8
  %34 = load ptr, ptr %7, align 8
  %35 = load ptr, ptr %15, align 8
  %36 = call i32 %33(ptr noundef %34, ptr noundef %35)
  store i32 %36, ptr %16, align 4
  %37 = load i32, ptr %16, align 4
  %38 = icmp slt i32 %37, 0
  br i1 %38, label %39, label %41

39:                                               ; preds = %23
  %40 = load i64, ptr %14, align 8
  store i64 %40, ptr %13, align 8
  br label %50

41:                                               ; preds = %23
  %42 = load i32, ptr %16, align 4
  %43 = icmp sgt i32 %42, 0
  br i1 %43, label %44, label %47

44:                                               ; preds = %41
  %45 = load i64, ptr %14, align 8
  %46 = add i64 %45, 1
  store i64 %46, ptr %12, align 8
  br label %49

47:                                               ; preds = %41
  %48 = load ptr, ptr %15, align 8
  store ptr %48, ptr %6, align 8
  store i32 1, ptr %17, align 4
  br label %52

49:                                               ; preds = %44
  br label %50

50:                                               ; preds = %49, %39
  br label %19, !llvm.loop !14

51:                                               ; preds = %19
  store ptr null, ptr %6, align 8
  store i32 1, ptr %17, align 4
  br label %52

52:                                               ; preds = %51, %47
  call void @llvm.lifetime.end.p0(i64 4, ptr %16) #9
  call void @llvm.lifetime.end.p0(i64 8, ptr %15) #9
  call void @llvm.lifetime.end.p0(i64 8, ptr %14) #9
  call void @llvm.lifetime.end.p0(i64 8, ptr %13) #9
  call void @llvm.lifetime.end.p0(i64 8, ptr %12) #9
  %53 = load ptr, ptr %6, align 8
  ret ptr %53
}

; Function Attrs: inlinehint nounwind uwtable
define internal i64 @FullTransactionIdFromU64(i64 noundef %0) #2 {
  %2 = alloca %struct.FullTransactionId, align 8
  %3 = alloca i64, align 8
  store i64 %0, ptr %3, align 8
  %4 = load i64, ptr %3, align 8
  %5 = getelementptr inbounds nuw %struct.FullTransactionId, ptr %2, i32 0, i32 0
  store i64 %4, ptr %5, align 8
  %6 = getelementptr inbounds nuw %struct.FullTransactionId, ptr %2, i32 0, i32 0
  %7 = load i64, ptr %6, align 8
  ret i64 %7
}

; Function Attrs: inlinehint nounwind uwtable
define internal i64 @DatumGetUInt64(i64 noundef %0) #2 {
  %2 = alloca i64, align 8
  store i64 %0, ptr %2, align 8
  %3 = load i64, ptr %2, align 8
  ret i64 %3
}

; Function Attrs: inlinehint nounwind uwtable
define internal i64 @BoolGetDatum(i1 noundef zeroext %0) #2 {
  %2 = alloca i8, align 1
  %3 = zext i1 %0 to i8
  store i8 %3, ptr %2, align 1
  %4 = load i8, ptr %2, align 1, !range !10, !noundef !11
  %5 = trunc i8 %4 to i1
  %6 = select i1 %5, i32 1, i32 0
  %7 = sext i32 %6 to i64
  ret i64 %7
}

; Function Attrs: nounwind uwtable
define internal zeroext i1 @is_visible_fxid(i64 %0, ptr noundef %1) #0 {
  %3 = alloca i1, align 1
  %4 = alloca %struct.FullTransactionId, align 8
  %5 = alloca ptr, align 8
  %6 = alloca ptr, align 8
  %7 = alloca i32, align 4
  %8 = alloca i32, align 4
  %9 = getelementptr inbounds nuw %struct.FullTransactionId, ptr %4, i32 0, i32 0
  store i64 %0, ptr %9, align 8
  store ptr %1, ptr %5, align 8
  %10 = getelementptr inbounds nuw %struct.FullTransactionId, ptr %4, i32 0, i32 0
  %11 = load i64, ptr %10, align 8
  %12 = load ptr, ptr %5, align 8
  %13 = getelementptr inbounds nuw %struct.pg_snapshot, ptr %12, i32 0, i32 2
  %14 = getelementptr inbounds nuw %struct.FullTransactionId, ptr %13, i32 0, i32 0
  %15 = load i64, ptr %14, align 8
  %16 = icmp ult i64 %11, %15
  br i1 %16, label %17, label %18

17:                                               ; preds = %2
  store i1 true, ptr %3, align 1
  br label %70

18:                                               ; preds = %2
  %19 = getelementptr inbounds nuw %struct.FullTransactionId, ptr %4, i32 0, i32 0
  %20 = load i64, ptr %19, align 8
  %21 = load ptr, ptr %5, align 8
  %22 = getelementptr inbounds nuw %struct.pg_snapshot, ptr %21, i32 0, i32 3
  %23 = getelementptr inbounds nuw %struct.FullTransactionId, ptr %22, i32 0, i32 0
  %24 = load i64, ptr %23, align 8
  %25 = icmp ult i64 %20, %24
  br i1 %25, label %27, label %26

26:                                               ; preds = %18
  store i1 false, ptr %3, align 1
  br label %70

27:                                               ; preds = %18
  %28 = load ptr, ptr %5, align 8
  %29 = getelementptr inbounds nuw %struct.pg_snapshot, ptr %28, i32 0, i32 1
  %30 = load i32, ptr %29, align 4
  %31 = icmp ugt i32 %30, 30
  br i1 %31, label %32, label %45

32:                                               ; preds = %27
  call void @llvm.lifetime.start.p0(i64 8, ptr %6) #9
  %33 = load ptr, ptr %5, align 8
  %34 = getelementptr inbounds nuw %struct.pg_snapshot, ptr %33, i32 0, i32 4
  %35 = getelementptr inbounds [0 x %struct.FullTransactionId], ptr %34, i64 0, i64 0
  %36 = load ptr, ptr %5, align 8
  %37 = getelementptr inbounds nuw %struct.pg_snapshot, ptr %36, i32 0, i32 1
  %38 = load i32, ptr %37, align 4
  %39 = zext i32 %38 to i64
  %40 = call ptr @bsearch(ptr noundef %4, ptr noundef %35, i64 noundef %39, i64 noundef 8, ptr noundef @cmp_fxid)
  store ptr %40, ptr %6, align 8
  %41 = load ptr, ptr %6, align 8
  %42 = icmp ne ptr %41, null
  %43 = select i1 %42, i32 0, i32 1
  %44 = icmp ne i32 %43, 0
  store i1 %44, ptr %3, align 1
  call void @llvm.lifetime.end.p0(i64 8, ptr %6) #9
  br label %70

45:                                               ; preds = %27
  call void @llvm.lifetime.start.p0(i64 4, ptr %7) #9
  store i32 0, ptr %7, align 4
  br label %46

46:                                               ; preds = %65, %45
  %47 = load i32, ptr %7, align 4
  %48 = load ptr, ptr %5, align 8
  %49 = getelementptr inbounds nuw %struct.pg_snapshot, ptr %48, i32 0, i32 1
  %50 = load i32, ptr %49, align 4
  %51 = icmp ult i32 %47, %50
  br i1 %51, label %52, label %68

52:                                               ; preds = %46
  %53 = getelementptr inbounds nuw %struct.FullTransactionId, ptr %4, i32 0, i32 0
  %54 = load i64, ptr %53, align 8
  %55 = load ptr, ptr %5, align 8
  %56 = getelementptr inbounds nuw %struct.pg_snapshot, ptr %55, i32 0, i32 4
  %57 = load i32, ptr %7, align 4
  %58 = zext i32 %57 to i64
  %59 = getelementptr inbounds nuw [0 x %struct.FullTransactionId], ptr %56, i64 0, i64 %58
  %60 = getelementptr inbounds nuw %struct.FullTransactionId, ptr %59, i32 0, i32 0
  %61 = load i64, ptr %60, align 8
  %62 = icmp eq i64 %54, %61
  br i1 %62, label %63, label %64

63:                                               ; preds = %52
  store i1 false, ptr %3, align 1
  store i32 1, ptr %8, align 4
  br label %69

64:                                               ; preds = %52
  br label %65

65:                                               ; preds = %64
  %66 = load i32, ptr %7, align 4
  %67 = add i32 %66, 1
  store i32 %67, ptr %7, align 4
  br label %46, !llvm.loop !12

68:                                               ; preds = %46
  store i1 true, ptr %3, align 1
  store i32 1, ptr %8, align 4
  br label %69

69:                                               ; preds = %68, %63
  call void @llvm.lifetime.end.p0(i64 4, ptr %7) #9
  br label %70

70:                                               ; preds = %69, %32, %26, %17
  %71 = load i1, ptr %3, align 1
  ret i1 %71
}

; Function Attrs: inlinehint nounwind uwtable
define internal ptr @DatumGetPointer(i64 noundef %0) #2 {
  %2 = alloca i64, align 8
  store i64 %0, ptr %2, align 8
  %3 = load i64, ptr %2, align 8
  %4 = inttoptr i64 %3 to ptr
  ret ptr %4
}

; Function Attrs: inlinehint nounwind uwtable
define internal i64 @DatumGetFullTransactionId(i64 noundef %0) #2 {
  %2 = alloca %struct.FullTransactionId, align 8
  %3 = alloca i64, align 8
  store i64 %0, ptr %3, align 8
  %4 = load i64, ptr %3, align 8
  %5 = call i64 @DatumGetUInt64(i64 noundef %4)
  %6 = call i64 @FullTransactionIdFromU64(i64 noundef %5)
  %7 = getelementptr inbounds nuw %struct.FullTransactionId, ptr %2, i32 0, i32 0
  store i64 %6, ptr %7, align 8
  %8 = getelementptr inbounds nuw %struct.FullTransactionId, ptr %2, i32 0, i32 0
  %9 = load i64, ptr %8, align 8
  ret i64 %9
}

; Function Attrs: nounwind uwtable
define dso_local i64 @pg_visible_in_snapshot(ptr noundef %0) #0 {
  %2 = alloca ptr, align 8
  %3 = alloca %struct.FullTransactionId, align 8
  %4 = alloca ptr, align 8
  store ptr %0, ptr %2, align 8
  call void @llvm.lifetime.start.p0(i64 8, ptr %3) #9
  %5 = load ptr, ptr %2, align 8
  %6 = getelementptr inbounds nuw %struct.FunctionCallInfoBaseData, ptr %5, i32 0, i32 6
  %7 = getelementptr inbounds [0 x %struct.NullableDatum], ptr %6, i64 0, i64 0
  %8 = getelementptr inbounds nuw %struct.NullableDatum, ptr %7, i32 0, i32 0
  %9 = load i64, ptr %8, align 8
  %10 = call i64 @DatumGetFullTransactionId(i64 noundef %9)
  %11 = getelementptr inbounds nuw %struct.FullTransactionId, ptr %3, i32 0, i32 0
  store i64 %10, ptr %11, align 8
  call void @llvm.lifetime.start.p0(i64 8, ptr %4) #9
  %12 = load ptr, ptr %2, align 8
  %13 = getelementptr inbounds nuw %struct.FunctionCallInfoBaseData, ptr %12, i32 0, i32 6
  %14 = getelementptr inbounds [0 x %struct.NullableDatum], ptr %13, i64 0, i64 1
  %15 = getelementptr inbounds nuw %struct.NullableDatum, ptr %14, i32 0, i32 0
  %16 = load i64, ptr %15, align 8
  %17 = call ptr @DatumGetPointer(i64 noundef %16)
  %18 = call ptr @pg_detoast_datum(ptr noundef %17)
  store ptr %18, ptr %4, align 8
  %19 = load ptr, ptr %4, align 8
  %20 = getelementptr inbounds nuw %struct.FullTransactionId, ptr %3, i32 0, i32 0
  %21 = load i64, ptr %20, align 8
  %22 = call zeroext i1 @is_visible_fxid(i64 %21, ptr noundef %19)
  %23 = call i64 @BoolGetDatum(i1 noundef zeroext %22)
  call void @llvm.lifetime.end.p0(i64 8, ptr %4) #9
  call void @llvm.lifetime.end.p0(i64 8, ptr %3) #9
  ret i64 %23
}