; Function Attrs: nounwind uwtable
define dso_local range(i64 0, 2) i64 @pg_visible_in_snapshot(ptr noundef readonly captures(none) %0) local_unnamed_addr #0 {
  %2 = getelementptr inbounds nuw i8, ptr %0, i64 32
  %3 = load i64, ptr %2, align 8
  %4 = getelementptr inbounds nuw i8, ptr %0, i64 48
  %5 = load i64, ptr %4, align 8
  %6 = inttoptr i64 %5 to ptr
  %7 = tail call ptr @pg_detoast_datum(ptr noundef %6) #11
  %8 = getelementptr inbounds nuw i8, ptr %7, i64 8
  %9 = load i64, ptr %8, align 8
  %10 = icmp ult i64 %3, %9
  br i1 %10, label %is_visible_fxid.exit, label %11

11:                                               ; preds = %1
  %12 = getelementptr inbounds nuw i8, ptr %7, i64 16
  %13 = load i64, ptr %12, align 8
  %14 = icmp ult i64 %3, %13
  br i1 %14, label %15, label %is_visible_fxid.exit

15:                                               ; preds = %11
  %16 = getelementptr inbounds nuw i8, ptr %7, i64 4
  %17 = load i32, ptr %16, align 4
  %18 = icmp ugt i32 %17, 30
  %19 = getelementptr inbounds nuw i8, ptr %7, i64 24
  br i1 %18, label %20, label %.preheader.i

.preheader.i:                                     ; preds = %15
  %.not1619.not.i = icmp eq i32 %17, 0
  br i1 %.not1619.not.i, label %is_visible_fxid.exit, label %.lr.ph.preheader.i

.lr.ph.preheader.i:                               ; preds = %.preheader.i
  %wide.trip.count.i = zext nneg i32 %17 to i64
  br label %.lr.ph.i

20:                                               ; preds = %15
  %21 = zext i32 %17 to i64
  br label %.lr.ph.i.i

.lr.ph.i.i:                                       ; preds = %30, %20
  %.01621.i.i = phi i64 [ %.1.i.i, %30 ], [ 0, %20 ]
  %.01720.i.i = phi i64 [ %.118.i.i, %30 ], [ %21, %20 ]
  %22 = add i64 %.01720.i.i, %.01621.i.i
  %23 = lshr i64 %22, 1
  %24 = shl i64 %23, 3
  %25 = getelementptr inbounds nuw i8, ptr %19, i64 %24
  %.sroa.0.0.copyload.i.i = load i64, ptr %25, align 8
  %26 = icmp ult i64 %3, %.sroa.0.0.copyload.i.i
  br i1 %26, label %30, label %27

27:                                               ; preds = %.lr.ph.i.i
  %.not.i.i = icmp eq i64 %3, %.sroa.0.0.copyload.i.i
  br i1 %.not.i.i, label %is_visible_fxid.exit, label %28

28:                                               ; preds = %27
  %29 = add nuw i64 %23, 1
  br label %30

30:                                               ; preds = %28, %.lr.ph.i.i
  %.118.i.i = phi i64 [ %.01720.i.i, %28 ], [ %23, %.lr.ph.i.i ]
  %.1.i.i = phi i64 [ %29, %28 ], [ %.01621.i.i, %.lr.ph.i.i ]
  %31 = icmp ult i64 %.1.i.i, %.118.i.i
  br i1 %31, label %.lr.ph.i.i, label %is_visible_fxid.exit, !llvm.loop !24

32:                                               ; preds = %.lr.ph.i
  %indvars.iv.next.i = add nuw nsw i64 %indvars.iv.i, 1
  %exitcond.not.i = icmp eq i64 %indvars.iv.next.i, %wide.trip.count.i
  br i1 %exitcond.not.i, label %is_visible_fxid.exit, label %.lr.ph.i, !llvm.loop !25

.lr.ph.i:                                         ; preds = %32, %.lr.ph.preheader.i
  %indvars.iv.i = phi i64 [ 0, %.lr.ph.preheader.i ], [ %indvars.iv.next.i, %32 ]
  %33 = getelementptr inbounds nuw [0 x %struct.FullTransactionId], ptr %19, i64 0, i64 %indvars.iv.i
  %34 = load i64, ptr %33, align 8
  %.not.i = icmp eq i64 %3, %34
  br i1 %.not.i, label %is_visible_fxid.exit, label %32

is_visible_fxid.exit:                             ; preds = %32, %.lr.ph.i, %27, %30, %1, %11, %.preheader.i
  %.011.i = phi i64 [ 1, %1 ], [ 0, %11 ], [ 1, %.preheader.i ], [ 1, %30 ], [ 0, %27 ], [ 0, %.lr.ph.i ], [ 1, %32 ]
  ret i64 %.011.i
}